ccollections
defaultdict
p1
(c__builtin__
list
p2
tRp3
I3
(lp4
Vfan
p5
aVkey
p6
aVfur
p7
aVbar
p8
aVjug
p9
aVelf
p10
aVraw
p11
aVace
p12
aVsaw
p13
aVnut
p14
aVguy
p15
aVdry
p16
aVoil
p17
aVeye
p18
aVbat
p19
aVwax
p20
aVear
p21
aVbow
p22
aVcub
p23
aVhot
p24
aVdad
p25
aVdam
p26
aVlip
p27
aVcap
p28
aVcow
p29
aVtag
p30
aVlab
p31
aVrod
p32
aVink
p33
aVmix
p34
aVjam
p35
aVzip
p36
aVlog
p37
aVzoo
p38
aVdot
p39
aVold
p40
aVcup
p41
aVegg
p42
aVbay
p43
aVbag
p44
aVcod
p45
aVcut
p46
aVcue
p47
aVice
p48
aVray
p49
aVleg
p50
aVpig
p51
aVman
p52
aVpan
p53
aVpin
p54
aVhat
p55
aVdog
p56
aVowl
p57
aVmom
p58
aVgun
p59
aVwin
p60
aVpen
p61
aVtie
p62
aVoak
p63
aVpot
p64
aVtub
p65
aVfog
p66
aVpie
p67
aVone
p68
aVjet
p69
aVlap
p70
aVnet
p71
aVhay
p72
aVpet
p73
aVjaw
p74
aVjar
p75
aVlid
p76
aVbet
p77
aVmap
p78
aVrun
p79
aVfly
p80
aVtoe
p81
aVjoy
p82
aVkit
p83
aVtoy
p84
aVbox
p85
aVboy
p86
aVski
p87
aVsea
p88
aVtin
p89
aVbed
p90
aVsky
p91
aVtip
p92
aVhen
p93
aVbug
p94
aVhit
p95
aVkid
p96
aVrat
p97
aVbee
p98
aVbun
p99
aVcar
p100
aVson
p101
aVsun
p102
aVcat
p103
asI4
(lp104
Vpool
p105
aVpalm
p106
aVdish
p107
aVbank
p108
aVsoft
p109
aVsuit
p110
aVdate
p111
aVcyan
p112
aVroll
p113
aVluck
p114
aVlily
p115
aVcrow
p116
aVwild
p117
aVduty
p118
aVknit
p119
aVcrib
p120
aVchic
p121
aVcute
p122
aVnote
p123
aVduck
p124
aVidea
p125
aVpipe
p126
aVtune
p127
aVjump
p128
aVdata
p129
aVring
p130
aVtime
p131
aVband
p132
aVsalt
p133
aVsock
p134
aVlion
p135
aVfast
p136
aVgrip
p137
aVwolf
p138
aVprod
p139
aVturn
p140
aVbaby
p141
aVbull
p142
aVdiet
p143
aVveil
p144
aVcook
p145
aVoven
p146
aVspin
p147
aVhalf
p148
aVmask
p149
aVhalo
p150
aVhall
p151
aVfold
p152
aVgear
p153
aVwind
p154
aVfile
p155
aVpair
p156
aVdeal
p157
aVbolt
p158
aVcurl
p159
aVrock
p160
aVhose
p161
aVfilm
p162
aVcrew
p163
aVpain
p164
aVdark
p165
aVsign
p166
aVbird
p167
aVplan
p168
aVflew
p169
aVteal
p170
aVcell
p171
aVhash
p172
aVhook
p173
aVsoap
p174
aVpick
p175
aVgoat
p176
aVmark
p177
aVgrin
p178
aVdrop
p179
aVhead
p180
aVlead
p181
aVfish
p182
aVport
p183
aVsong
p184
aVcard
p185
aVhair
p186
aVsoup
p187
aVarmy
p188
aVbeat
p189
aVlove
p190
aVwave
p191
aVcoil
p192
aVfuel
p193
aVkiss
p194
aVbale
p195
aVbase
p196
aVcoat
p197
aVchip
p198
aVwide
p199
aVfood
p200
aVhole
p201
aVrule
p202
aVdeep
p203
aVshow
p204
aVpond
p205
aVtrap
p206
aVcage
p207
aVfarm
p208
aVsnow
p209
aVtail
p210
aVwire
p211
aVpull
p212
aVdeck
p213
aVbait
p214
aVcock
p215
aVmeat
p216
aVlane
p217
aVdesk
p218
aVpost
p219
aVboom
p220
aVroom
p221
aVmale
p222
aVmeat
p223
aVmail
p224
aVcord
p225
aVtape
p226
aVbath
p227
aVarea
p228
aVcorn
p229
aVfall
p230
aVstag
p231
aVball
p232
aVloaf
p233
aVleaf
p234
aVback
p235
aVchin
p236
aVblue
p237
aVpump
p238
aVnail
p239
aVdeer
p240
aVrope
p241
aVwork
p242
aVrain
p243
aVwalk
p244
aVbeak
p245
aVcore
p246
aVhome
p247
aVmess
p248
aVwing
p249
aVhill
p250
aVgate
p251
aVplay
p252
aVkick
p253
aVfire
p254
aVarch
p255
aVyarn
p256
aVmilk
p257
aVpile
p258
aVpath
p259
aVhorn
p260
aVeast
p261
aVneck
p262
aVcode
p263
aVnose
p264
aVbulb
p265
aVpike
p266
aVmist
p267
aVtent
p268
aVdisc
p269
aVline
p270
aVseal
p271
aVbarn
p272
aVdrum
p273
aVmeal
p274
aVpole
p275
aVknee
p276
aVsail
p277
aVwood
p278
aVrose
p279
aVbuck
p280
aVwool
p281
aVfowl
p282
aVsack
p283
aVmoon
p284
aVlens
p285
aVpill
p286
aVvote
p287
aVrisk
p288
aVbead
p289
aVmood
p290
aVmall
p291
aVstew
p292
aVpeak
p293
aVpeer
p294
aVlock
p295
aVfang
p296
aVstem
p297
aVglue
p298
aVfrog
p299
aVmath
p300
aVpush
p301
aVcall
p302
aVtide
p303
aVsand
p304
aVrail
p305
aVpail
p306
aVsilk
p307
aVshoe
p308
aVtree
p309
aVdock
p310
aVfist
p311
aVheel
p312
aVship
p313
aVroad
p314
aVlist
p315
aVpark
p316
aVgold
p317
aVtwig
p318
aVpine
p319
aVnest
p320
aVpage
p321
aVgolf
p322
aVdust
p323
aVfork
p324
aVshop
p325
aVpear
p326
aVgirl
p327
aVfoot
p328
aVtext
p329
aVsand
p330
aVvase
p331
aVlift
p332
aVdoor
p333
aVroot
p334
aVcave
p335
aVhour
p336
aVcrop
p337
aVsize
p338
aVtalk
p339
aVhand
p340
aVbell
p341
aVlawn
p342
aVflag
p343
aVdoll
p344
aVtank
p345
aVblow
p346
aVmill
p347
aVlamp
p348
aVstar
p349
aVtale
p350
aVface
p351
aVgift
p352
aVrack
p353
aVboat
p354
aVlace
p355
aVdirt
p356
aVmint
p357
aVvest
p358
aVrace
p359
aVsake
p360
aVlake
p361
aVview
p362
aVmenu
p363
aVroof
p364
aVcash
p365
aVrake
p366
aVtile
p367
aViron
p368
aVclam
p369
aVpoet
p370
aVrest
p371
aVkite
p372
aVclay
p373
aVplow
p374
aVseed
p375
aVseat
p376
aVpork
p377
aVcity
p378
aVclip
p379
aVchef
p380
aVboot
p381
aVbear
p382
aVbowl
p383
aVbook
p384
aVtown
p385
aVbite
p386
aVking
p387
aVtoad
p388
aVbelt
p389
aVtool
p390
aVbike
p391
aVcoal
p392
aVcoin
p393
aVrice
p394
aVsofa
p395
aVcake
p396
aVcart
p397
aVsoil
p398
aVcomb
p399
aVswim
p400
aVwall
p401
aVride
p402
asI5
(lp403
Vmouse
p404
aVshake
p405
aVmusic
p406
aVshell
p407
aVstick
p408
aVbeach
p409
aVspice
p410
aVclimb
p411
aVacute
p412
aVdraft
p413
aVorgan
p414
aVtulip
p415
aVfrost
p416
aVcross
p417
aVivory
p418
aVassay
p419
aVmodel
p420
aVolive
p421
aVprice
p422
aVegret
p423
aVmovie
p424
aVslide
p425
aVtowel
p426
aVthumb
p427
aVcurve
p428
aVcough
p429
aVguard
p430
aVradar
p431
aValien
p432
aVdrama
p433
aVnight
p434
aVtwist
p435
aVstraw
p436
aVlight
p437
aVheart
p438
aVcream
p439
aVearth
p440
aVslice
p441
aVstamp
p442
aVgrain
p443
aVsleep
p444
aVcycle
p445
aVpanel
p446
aVapple
p447
aVswing
p448
aVsmile
p449
aVfeast
p450
aVgreen
p451
aVporch
p452
aVheron
p453
aVwrist
p454
aVchain
p455
aVwreck
p456
aVfever
p457
aVwheel
p458
aVdance
p459
aVcouch
p460
aValert
p461
aVdress
p462
aVzebra
p463
aVwhite
p464
aVdirty
p465
aVsword
p466
aVfield
p467
aVscrew
p468
aVbunch
p469
aVriver
p470
aVpound
p471
aVcheek
p472
aVquiet
p473
aVdrain
p474
aVsteam
p475
aVshore
p476
aVcrack
p477
aVcrate
p478
aVcable
p479
aVocean
p480
aVvoice
p481
aVpress
p482
aVfield
p483
aVspell
p484
aVflash
p485
aVpiece
p486
aVwagon
p487
aVdepth
p488
aVmotor
p489
aVcliff
p490
aVplane
p491
aVchest
p492
aVdrink
p493
aVwoman
p494
aVblack
p495
aVarrow
p496
aVcrank
p497
aVsauce
p498
aVcrown
p499
aVmouth
p500
aVbrush
p501
aVcourt
p502
aVpanic
p503
aVgrass
p504
aVspade
p505
aVtrunk
p506
aVframe
p507
aVglass
p508
aVcount
p509
aVaward
p510
aVlabel
p511
aVstack
p512
aVspace
p513
aVelbow
p514
aVessay
p515
aVjuice
p516
aVcoast
p517
aVrobot
p518
aVscale
p519
aVvirus
p520
aVcrush
p521
aVroute
p522
aVangel
p523
aVhouse
p524
aVmoney
p525
aVjeans
p526
aVrobin
p527
aVglove
p528
aVmetal
p529
aVplant
p530
aVshirt
p531
aVpilot
p532
aVfocus
p533
aVcraft
p534
aVshore
p535
aVlemon
p536
aVspoon
p537
aVsteel
p538
aVpaste
p539
aVradio
p540
aVmeter
p541
aVlobby
p542
aVpaper
p543
aVpiano
p544
aVprint
p545
aVonion
p546
aVflour
p547
aVmatch
p548
aVnovel
p549
aVpizza
p550
aVquilt
p551
aVcabin
p552
aVsalad
p553
aVcandy
p554
aVshock
p555
aValarm
p556
aVtable
p557
aVgoose
p558
aVpurse
p559
aVspray
p560
aVankle
p561
aVvideo
p562
aVtaste
p563
aVgrape
p564
aVsteak
p565
aVhotel
p566
aVwhale
p567
aVglobe
p568
aVbread
p569
aVrifle
p570
aVshelf
p571
aVphoto
p572
aVflame
p573
aVpasta
p574
aVfruit
p575
aValley
p576
aVdough
p577
aVfence
p578
aVfight
p579
aVpower
p580
aVtruck
p581
aVlinen
p582
aVmagic
p583
aVscarf
p584
aVfloor
p585
aVspeed
p586
aVaisle
p587
aVhorse
p588
aVpeace
p589
aVmedia
p590
aVsport
p591
aVpaint
p592
aVcloth
p593
aVquill
p594
aVjewel
p595
aVphone
p596
aVparty
p597
aVplate
p598
aVghost
p599
aVflock
p600
aVskate
p601
aVtiger
p602
aVbrass
p603
aVsmell
p604
aVkitty
p605
aVberry
p606
aVbeard
p607
aVbooth
p608
aVtrash
p609
aVchart
p610
aVranch
p611
aVtower
p612
aVclass
p613
aVtrack
p614
aVtrain
p615
aVbench
p616
aVhoney
p617
aVchild
p618
aVblade
p619
aVchess
p620
aVboard
p621
aVshade
p622
aVclerk
p623
aVslope
p624
aVsheep
p625
aVbrick
p626
aVshark
p627
aVscent
p628
aVtooth
p629
aVclock
p630
aVskirt
p631
aVbride
p632
aVrider
p633
aVchalk
p634
aVstove
p635
aVsugar
p636
aVsmoke
p637
aVsnake
p638
aVridge
p639
aVshape
p640
aVwaist
p641
aVcolor
p642
aVwatch
p643
aVsnail
p644
aVchair
p645
aVsound
p646
aVcloud
p647
aVwater
p648
asI6
(lp649
Vletter
p650
aVtailor
p651
aVcourse
p652
aVtrauma
p653
aVsunset
p654
aVground
p655
aVaccord
p656
aVwizard
p657
aVabloom
p658
aVactive
p659
aVshield
p660
aVaccess
p661
aVcrayon
p662
aVveneer
p663
aVchoice
p664
aVmirror
p665
aVfinger
p666
aVdesert
p667
aVrhythm
p668
aVdinner
p669
aVhelmet
p670
aVnarrow
p671
aVheight
p672
aVladder
p673
aVanswer
p674
aVneedle
p675
aVmissle
p676
aVpocket
p677
aVzephyr
p678
aVbubble
p679
aVbeauty
p680
aVdancer
p681
aVbarrel
p682
aVauthor
p683
aVtongue
p684
aVbottle
p685
aVfluffy
p686
aVworker
p687
aVcorner
p688
aVbucket
p689
aVcopper
p690
aVfriend
p691
aVengine
p692
aVestate
p693
aVgarden
p694
aVturkey
p695
aVsafety
p696
aVbanana
p697
aVenergy
p698
aVdriver
p699
aVweight
p700
aVcolumn
p701
aVcotton
p702
aVpepper
p703
aVwinter
p704
aVcookie
p705
aVflower
p706
aVpoison
p707
aVjungle
p708
aVvalley
p709
aVzipper
p710
aVpuzzle
p711
aVmarket
p712
aVmuscle
p713
aVwrench
p714
aVartist
p715
aVeating
p716
aVrabbit
p717
aVcheese
p718
aVwindow
p719
aVwinner
p720
aVrocket
p721
aVsymbol
p722
aVtennis
p723
aVsphere
p724
aVgarlic
p725
aVjacket
p726
aVmotion
p727
aVgarage
p728
aVpeanut
p729
aVsponge
p730
aVshrimp
p731
aVnature
p732
aVdonkey
p733
aVguitar
p734
aVmarker
p735
aVfigure
p736
aVicicle
p737
aVsinger
p738
aVthread
p739
aVbasket
p740
aVsignal
p741
aVnumber
p742
aVliquid
p743
aVforest
p744
aVanimal
p745
aVthrill
p746
aVfamily
p747
aVvessel
p748
aVhammer
p749
aVorange
p750
aVlocket
p751
aVfilter
p752
aVchance
p753
aVstitch
p754
aVpowder
p755
aVmother
p756
aVflight
p757
aVshorts
p758
aVquince
p759
aVfridge
p760
aVmemory
p761
aVinsect
p762
aVfabric
p763
aVfaucet
p764
aVquartz
p765
aVtunnel
p766
aVrunner
p767
aVvacuum
p768
aVpalace
p769
aVdoctor
p770
aVminute
p771
aVspouse
p772
aVpencil
p773
aVdrawer
p774
aVlumber
p775
aVinfant
p776
aVbutton
p777
aVpotato
p778
aVplanet
p779
aVtemple
p780
aVsister
p781
aVpickle
p782
aVshower
p783
aVpistol
p784
aVisland
p785
aVsilver
p786
aVspring
p787
aVpillow
p788
aVmitten
p789
aVmonkey
p790
aVmakeup
p791
aVgrowth
p792
aVtarget
p793
aVfarmer
p794
aVparent
p795
aVmarble
p796
aVsalmon
p797
aVshadow
p798
aVchurch
p799
aVbubble
p800
aVkettle
p801
aVschool
p802
aVtimber
p803
aVsecret
p804
aVpolish
p805
aVplayer
p806
aVclinic
p807
aVsleeve
p808
aVplough
p809
aVrescue
p810
aVrecord
p811
aVreader
p812
aVcloset
p813
aVbronze
p814
aVrepair
p815
aVribbon
p816
aVcircle
p817
aVbranch
p818
aVkitten
p819
aVresort
p820
aVtomato
p821
aVcherry
p822
aVbridge
p823
aVsummit
p824
aVwealth
p825
aVcattle
p826
aVchange
p827
aVcoffee
p828
aVcelery
p829
aVcasino
p830
aVcellar
p831
aVcandle
p832
aVstream
p833
aVbutter
p834
aVcamera
p835
aVsummer
p836
aVcarrot
p837
aVcobweb
p838
aVcarpet
p839
aVcactus
p840
aVsoccer
p841
aVwarmth
p842
aVcollar
p843
aVclover
p844
aVcannon
p845
asI7
(lp846
Vcracker
p847
aVcountry
p848
aVelement
p849
aVcarving
p850
aVability
p851
aVvintage
p852
aVvarnish
p853
aVmachine
p854
aVearring
p855
aVscience
p856
aVdrawing
p857
aVgesture
p858
aVcooking
p859
aVcushion
p860
aVdessert
p861
aVdiamond
p862
aVworkout
p863
aVmorning
p864
aVmonitor
p865
aVwriting
p866
aVdefense
p867
aVcontrol
p868
aVarticle
p869
aVwarning
p870
aVcontact
p871
aVfashion
p872
aVapparel
p873
aVcurtain
p874
aVcottage
p875
aVathlete
p876
aVcapital
p877
aVcombine
p878
aVdisplay
p879
aVstretch
p880
aVbalance
p881
aVcostume
p882
aVdriving
p883
aVkingdom
p884
aVshuttle
p885
aVdancing
p886
aVstorage
p887
aVfishing
p888
aVvaccine
p889
aVfitness
p890
aVfireman
p891
aVpayment
p892
aVdoorway
p893
aVactress
p894
aVnetwork
p895
aVpattern
p896
aVmailbox
p897
aVmessage
p898
aVairport
p899
aVteacher
p900
aVvehicle
p901
aVspeaker
p902
aVplanner
p903
aVmeasure
p904
aVmission
p905
aVfeather
p906
aVplastic
p907
aVladybug
p908
aVhandful
p909
aVfeeling
p910
aVhallway
p911
aVpancake
p912
aVaddress
p913
aVeyebrow
p914
aVleather
p915
aVuniform
p916
aVformula
p917
aVgrocery
p918
aVharvest
p919
aVpainter
p920
aVtriumph
p921
aVphysics
p922
aVparking
p923
aVthought
p924
aVairline
p925
aVpeasant
p926
aVmansion
p927
aVwhistle
p928
aVjewelry
p929
aVpresent
p930
aVclothes
p931
aVhaircut
p932
aVbattery
p933
aVhydrant
p934
aVsibling
p935
aVtherapy
p936
aVvolcano
p937
aVstation
p938
aVopening
p939
aVhusband
p940
aVlettuce
p941
aVrunning
p942
aVstadium
p943
aVprofile
p944
aVgarbage
p945
aVgiraffe
p946
aVsilence
p947
aVrailway
p948
aVbicycle
p949
aVjournal
p950
aVblanket
p951
aVjourney
p952
aVpopcorn
p953
aVtrailer
p954
aVchicken
p955
aVreading
p956
aVjustice
p957
aVhorizon
p958
aVkitchen
p959
aVbedroom
p960
aVholiday
p961
aVhighway
p962
aVcircuit
p963
aVcarrier
p964
aVsweater
p965
aVcabbage
p966
aVceiling
p967
aVsurface
p968
aVweather
p969
aVchannel
p970
aVcabinet
p971
aVstudent
p972
aVsuccess
p973
aVwarrior
p974
aVcollege
p975
aVcaptain
p976
asI8
(lp977
Vcomputer
p978
aVgemstone
p979
aVcamomile
p980
aVdiscount
p981
aVworkshop
p982
aVcurrency
p983
aVartifact
p984
aVswimming
p985
aVenvelope
p986
aVentrance
p987
aVforehead
p988
aVpredator
p989
aVexercise
p990
aVdaughter
p991
aVemission
p992
aVelevator
p993
aVdarkness
p994
aVcooridor
p995
aVelephant
p996
aVshopping
p997
aVaudience
p998
aVaircraft
p999
aVbathroom
p1000
aVbaseball
p1001
aVdocument
p1002
aVornament
p1003
aVgraduate
p1004
aVvacation
p1005
aVlanguage
p1006
aVsandwich
p1007
aVshoulder
p1008
aVoperator
p1009
aVmechanic
p1010
aVairplane
p1011
aVumbrella
p1012
aVincrease
p1013
aVsquirrel
p1014
aVfestival
p1015
aVlaughter
p1016
aVshooting
p1017
aVmagazine
p1018
aVheadache
p1019
aVwildlife
p1020
aVhospital
p1021
aVmedicine
p1022
aVmonument
p1023
aVengineer
p1024
aVmilitary
p1025
aVteaspoon
p1026
aVteaspoon
p1027
aVmidnight
p1028
aVnotebook
p1029
aVstocking
p1030
aVlearning
p1031
aVpurchase
p1032
aVemployee
p1033
aVrailroad
p1034
aVproposal
p1035
aVthinking
p1036
aVgoldfish
p1037
aVdowntown
p1038
aVmolecule
p1039
aVpainting
p1040
aVposition
p1041
aVhomework
p1042
aVseashore
p1043
aVscissors
p1044
aVtreasure
p1045
aVtraining
p1046
aVbirthday
p1047
aVclothing
p1048
aVchemical
p1049
aVmusician
p1050
aVmushroom
p1051
aVbuilding
p1052
aVcalendar
p1053
aVsunlight
p1054
aVbusiness
p1055
aVcarriage
p1056
aVceremony
p1057
as.